target datalayout = "e-m:e-p270:32:32-p271:32:32-p272:64:64-i64:64-i128:128-f80:128-n8:16:32:64-S128"
target triple = "x86_64-pc-linux-gnu"

; Function Attrs: nounwind uwtable
define dso_local zeroext i1 @expr_const_in_range(ptr noundef %0, ptr noundef %1, ptr noundef %2) #0 {
  %4 = alloca i1, align 1
  %5 = alloca ptr, align 8
  %6 = alloca ptr, align 8
  %7 = alloca ptr, align 8
  store ptr %0, ptr %5, align 8
  store ptr %1, ptr %6, align 8
  store ptr %2, ptr %7, align 8
  %8 = load ptr, ptr %6, align 8
  %9 = load ptr, ptr %7, align 8
  %10 = icmp eq ptr %8, %9
  br i1 %10, label %11, label %15

11:                                               ; preds = %3
  %12 = load ptr, ptr %5, align 8
  %13 = load ptr, ptr %6, align 8
  %14 = call zeroext i1 @expr_const_compare(ptr noundef %12, ptr noundef %13, i32 noundef 19)
  store i1 %14, ptr %4, align 1
  br label %25

15:                                               ; preds = %3
  %16 = load ptr, ptr %5, align 8
  %17 = load ptr, ptr %6, align 8
  %18 = call zeroext i1 @expr_const_compare(ptr noundef %16, ptr noundef %17, i32 noundef 15)
  br i1 %18, label %19, label %23

19:                                               ; preds = %15
  %20 = load ptr, ptr %5, align 8
  %21 = load ptr, ptr %7, align 8
  %22 = call zeroext i1 @expr_const_compare(ptr noundef %20, ptr noundef %21, i32 noundef 17)
  br label %23

23:                                               ; preds = %19, %15
  %24 = phi i1 [ false, %15 ], [ %22, %19 ]
  store i1 %24, ptr %4, align 1
  br label %25

25:                                               ; preds = %23, %11
  %26 = load i1, ptr %4, align 1
  ret i1 %26
}