; Function Attrs: nounwind uwtable
define dso_local zeroext i1 @expr_const_in_range(ptr noundef %0, ptr noundef %1, ptr noundef %2) local_unnamed_addr #0 {
  %4 = icmp eq ptr %1, %2
  br i1 %4, label %5, label %7

5:                                                ; preds = %3
  %6 = tail call zeroext i1 @expr_const_compare(ptr noundef %0, ptr noundef %1, i32 noundef 19)
  br label %11

7:                                                ; preds = %3
  %8 = tail call zeroext i1 @expr_const_compare(ptr noundef %0, ptr noundef %1, i32 noundef 15)
  br i1 %8, label %9, label %11

9:                                                ; preds = %7
  %10 = tail call zeroext i1 @expr_const_compare(ptr noundef %0, ptr noundef %2, i32 noundef 17)
  br label %11

11:                                               ; preds = %7, %9, %5
  %.0 = phi i1 [ %6, %5 ], [ false, %7 ], [ %10, %9 ]
  ret i1 %.0
}